; Function Attrs: mustprogress nofree nosync nounwind willreturn memory(write, argmem: readwrite, inaccessiblemem: none) uwtable
define range(i32 -1, 1) i32 @hwloc_topology_set_type_filter(ptr noundef captures(none) %0, i32 noundef %1, i32 noundef %2) local_unnamed_addr #19 {
  %4 = icmp ugt i32 %1, 19
  br i1 %4, label %5, label %7

5:                                                ; preds = %3
  %6 = tail call ptr @__errno_location() #37
  store i32 22, ptr %6, align 4, !tbaa !31
  br label %hwloc__topology_set_type_filter.exit

7:                                                ; preds = %3
  %8 = getelementptr inbounds nuw i8, ptr %0, i64 200
  %9 = load i64, ptr %8, align 8, !tbaa !90
  %10 = and i64 %9, 8
  %.not = icmp eq i64 %10, 0
  br i1 %.not, label %11, label %13

11:                                               ; preds = %7
  %12 = tail call ptr @__errno_location() #37
  store i32 16, ptr %12, align 4, !tbaa !31
  br label %hwloc__topology_set_type_filter.exit

13:                                               ; preds = %7
  %14 = icmp eq i32 %1, 14
  %15 = and i32 %1, 27
  %16 = icmp eq i32 %15, 0
  %or.cond3.i = or i1 %14, %16
  br i1 %or.cond3.i, label %17, label %20

17:                                               ; preds = %13
  %.not21.i = icmp eq i32 %2, 0
  br i1 %.not21.i, label %31, label %18

18:                                               ; preds = %17
  %19 = tail call ptr @__errno_location() #37
  store i32 22, ptr %19, align 4, !tbaa !31
  br label %hwloc__topology_set_type_filter.exit

20:                                               ; preds = %13
  %21 = icmp samesign ult i32 %1, 16
  br i1 %21, label %26, label %22

22:                                               ; preds = %20
  %23 = icmp eq i32 %2, 2
  br i1 %23, label %24, label %31

24:                                               ; preds = %22
  %25 = tail call ptr @__errno_location() #37
  store i32 22, ptr %25, align 4, !tbaa !31
  br label %hwloc__topology_set_type_filter.exit

26:                                               ; preds = %20
  %27 = icmp eq i32 %1, 13
  %28 = icmp eq i32 %2, 0
  %or.cond7.i = and i1 %27, %28
  br i1 %or.cond7.i, label %29, label %31

29:                                               ; preds = %26
  %30 = tail call ptr @__errno_location() #37
  store i32 22, ptr %30, align 4, !tbaa !31
  br label %hwloc__topology_set_type_filter.exit

31:                                               ; preds = %26, %22, %17
  %32 = icmp samesign ult i32 %1, 16
  %33 = icmp eq i32 %2, 3
  %or.cond5.i = and i1 %32, %33
  %spec.store.select.i = select i1 %or.cond5.i, i32 0, i32 %2
  %34 = getelementptr inbounds nuw i8, ptr %0, i64 120
  %35 = zext nneg i32 %1 to i64
  %36 = getelementptr inbounds nuw [20 x i32], ptr %34, i64 0, i64 %35
  store i32 %spec.store.select.i, ptr %36, align 4, !tbaa !31
  br label %hwloc__topology_set_type_filter.exit

hwloc__topology_set_type_filter.exit:             ; preds = %31, %29, %24, %18, %11, %5
  %.0 = phi i32 [ -1, %5 ], [ -1, %11 ], [ -1, %18 ], [ 0, %31 ], [ -1, %24 ], [ -1, %29 ]
  ret i32 %.0
}